target datalayout = "e-m:e-p270:32:32-p271:32:32-p272:64:64-i64:64-i128:128-f80:128-n8:16:32:64-S128"
target triple = "x86_64-pc-linux-gnu"

%struct.stbds_array_header = type { i64, i64, ptr, i64 }
%struct.stbds_hash_index = type { ptr, i64, i64, i64, i64, i64, i64, i64, i64, %struct.stbds_string_arena, ptr }
%struct.stbds_string_arena = type { ptr, i64, i8, i8 }
%struct.stbds_hash_bucket = type { [8 x i64], [8 x i64] }

; Function Attrs: nounwind uwtable
define ptr @stbds_hmdel_key(ptr noundef %0, i64 noundef %1, ptr noundef %2, i64 noundef %3, i64 noundef %4, i32 noundef %5) #0 {
  %7 = alloca ptr, align 8
  %8 = alloca ptr, align 8
  %9 = alloca i64, align 8
  %10 = alloca ptr, align 8
  %11 = alloca i64, align 8
  %12 = alloca i64, align 8
  %13 = alloca i32, align 4
  %14 = alloca ptr, align 8
  %15 = alloca ptr, align 8
  %16 = alloca i32, align 4
  %17 = alloca i64, align 8
  %18 = alloca ptr, align 8
  %19 = alloca i32, align 4
  %20 = alloca i64, align 8
  %21 = alloca i64, align 8
  store ptr %0, ptr %8, align 8, !tbaa !3
  store i64 %1, ptr %9, align 8, !tbaa !7
  store ptr %2, ptr %10, align 8, !tbaa !3
  store i64 %3, ptr %11, align 8, !tbaa !7
  store i64 %4, ptr %12, align 8, !tbaa !7
  store i32 %5, ptr %13, align 4, !tbaa !45
  %22 = load ptr, ptr %8, align 8, !tbaa !3
  %23 = icmp eq ptr %22, null
  br i1 %23, label %24, label %25

24:                                               ; preds = %6
  store ptr null, ptr %7, align 8
  br label %233

25:                                               ; preds = %6
  call void @llvm.lifetime.start.p0(i64 8, ptr %14) #7
  call void @llvm.lifetime.start.p0(i64 8, ptr %15) #7
  %26 = load ptr, ptr %8, align 8, !tbaa !3
  %27 = load i64, ptr %9, align 8, !tbaa !7
  %28 = sub i64 0, %27
  %29 = getelementptr inbounds i8, ptr %26, i64 %28
  store ptr %29, ptr %15, align 8, !tbaa !3
  %30 = load ptr, ptr %15, align 8, !tbaa !3
  %31 = getelementptr inbounds %struct.stbds_array_header, ptr %30, i64 -1
  %32 = getelementptr inbounds nuw %struct.stbds_array_header, ptr %31, i32 0, i32 2
  %33 = load ptr, ptr %32, align 8, !tbaa !12
  store ptr %33, ptr %14, align 8, !tbaa !3
  %34 = load ptr, ptr %15, align 8, !tbaa !3
  %35 = getelementptr inbounds %struct.stbds_array_header, ptr %34, i64 -1
  %36 = getelementptr inbounds nuw %struct.stbds_array_header, ptr %35, i32 0, i32 3
  store i64 0, ptr %36, align 8, !tbaa !13
  %37 = load ptr, ptr %14, align 8, !tbaa !3
  %38 = icmp eq ptr %37, null
  br i1 %38, label %39, label %41

39:                                               ; preds = %25
  %40 = load ptr, ptr %8, align 8, !tbaa !3
  store ptr %40, ptr %7, align 8
  store i32 1, ptr %16, align 4
  br label %232

41:                                               ; preds = %25
  call void @llvm.lifetime.start.p0(i64 8, ptr %17) #7
  %42 = load ptr, ptr %8, align 8, !tbaa !3
  %43 = load i64, ptr %9, align 8, !tbaa !7
  %44 = load ptr, ptr %10, align 8, !tbaa !3
  %45 = load i64, ptr %11, align 8, !tbaa !7
  %46 = load i64, ptr %12, align 8, !tbaa !7
  %47 = load i32, ptr %13, align 4, !tbaa !45
  %48 = call i64 @stbds_hm_find_slot(ptr noundef %42, i64 noundef %43, ptr noundef %44, i64 noundef %45, i64 noundef %46, i32 noundef %47)
  store i64 %48, ptr %17, align 8, !tbaa !7
  %49 = load i64, ptr %17, align 8, !tbaa !7
  %50 = icmp slt i64 %49, 0
  br i1 %50, label %51, label %53

51:                                               ; preds = %41
  %52 = load ptr, ptr %8, align 8, !tbaa !3
  store ptr %52, ptr %7, align 8
  store i32 1, ptr %16, align 4
  br label %231

53:                                               ; preds = %41
  call void @llvm.lifetime.start.p0(i64 8, ptr %18) #7
  %54 = load ptr, ptr %14, align 8, !tbaa !3
  %55 = getelementptr inbounds nuw %struct.stbds_hash_index, ptr %54, i32 0, i32 10
  %56 = load ptr, ptr %55, align 8, !tbaa !16
  %57 = load i64, ptr %17, align 8, !tbaa !7
  %58 = ashr i64 %57, 3
  %59 = getelementptr inbounds %struct.stbds_hash_bucket, ptr %56, i64 %58
  store ptr %59, ptr %18, align 8, !tbaa !3
  call void @llvm.lifetime.start.p0(i64 4, ptr %19) #7
  %60 = load i64, ptr %17, align 8, !tbaa !7
  %61 = and i64 %60, 7
  %62 = trunc i64 %61 to i32
  store i32 %62, ptr %19, align 4, !tbaa !45
  call void @llvm.lifetime.start.p0(i64 8, ptr %20) #7
  %63 = load ptr, ptr %18, align 8, !tbaa !3
  %64 = getelementptr inbounds nuw %struct.stbds_hash_bucket, ptr %63, i32 0, i32 1
  %65 = load i32, ptr %19, align 4, !tbaa !45
  %66 = sext i32 %65 to i64
  %67 = getelementptr inbounds [8 x i64], ptr %64, i64 0, i64 %66
  %68 = load i64, ptr %67, align 8, !tbaa !7
  store i64 %68, ptr %20, align 8, !tbaa !7
  call void @llvm.lifetime.start.p0(i64 8, ptr %21) #7
  %69 = load ptr, ptr %15, align 8, !tbaa !3
  %70 = icmp ne ptr %69, null
  br i1 %70, label %71, label %76

71:                                               ; preds = %53
  %72 = load ptr, ptr %15, align 8, !tbaa !3
  %73 = getelementptr inbounds %struct.stbds_array_header, ptr %72, i64 -1
  %74 = getelementptr inbounds nuw %struct.stbds_array_header, ptr %73, i32 0, i32 0
  %75 = load i64, ptr %74, align 8, !tbaa !9
  br label %77

76:                                               ; preds = %53
  br label %77

77:                                               ; preds = %76, %71
  %78 = phi i64 [ %75, %71 ], [ 0, %76 ]
  %79 = sub nsw i64 %78, 1
  %80 = sub nsw i64 %79, 1
  store i64 %80, ptr %21, align 8, !tbaa !7
  %81 = load ptr, ptr %14, align 8, !tbaa !3
  %82 = getelementptr inbounds nuw %struct.stbds_hash_index, ptr %81, i32 0, i32 2
  %83 = load i64, ptr %82, align 8, !tbaa !24
  %84 = add i64 %83, -1
  store i64 %84, ptr %82, align 8, !tbaa !24
  %85 = load ptr, ptr %14, align 8, !tbaa !3
  %86 = getelementptr inbounds nuw %struct.stbds_hash_index, ptr %85, i32 0, i32 5
  %87 = load i64, ptr %86, align 8, !tbaa !23
  %88 = add i64 %87, 1
  store i64 %88, ptr %86, align 8, !tbaa !23
  %89 = load ptr, ptr %15, align 8, !tbaa !3
  %90 = getelementptr inbounds %struct.stbds_array_header, ptr %89, i64 -1
  %91 = getelementptr inbounds nuw %struct.stbds_array_header, ptr %90, i32 0, i32 3
  store i64 1, ptr %91, align 8, !tbaa !13
  %92 = load ptr, ptr %18, align 8, !tbaa !3
  %93 = getelementptr inbounds nuw %struct.stbds_hash_bucket, ptr %92, i32 0, i32 0
  %94 = load i32, ptr %19, align 4, !tbaa !45
  %95 = sext i32 %94 to i64
  %96 = getelementptr inbounds [8 x i64], ptr %93, i64 0, i64 %95
  store i64 1, ptr %96, align 8, !tbaa !7
  %97 = load ptr, ptr %18, align 8, !tbaa !3
  %98 = getelementptr inbounds nuw %struct.stbds_hash_bucket, ptr %97, i32 0, i32 1
  %99 = load i32, ptr %19, align 4, !tbaa !45
  %100 = sext i32 %99 to i64
  %101 = getelementptr inbounds [8 x i64], ptr %98, i64 0, i64 %100
  store i64 -2, ptr %101, align 8, !tbaa !7
  %102 = load i32, ptr %13, align 4, !tbaa !45
  %103 = icmp eq i32 %102, 1
  br i1 %103, label %104, label %118

104:                                              ; preds = %77
  %105 = load ptr, ptr %14, align 8, !tbaa !3
  %106 = getelementptr inbounds nuw %struct.stbds_hash_index, ptr %105, i32 0, i32 9
  %107 = getelementptr inbounds nuw %struct.stbds_string_arena, ptr %106, i32 0, i32 3
  %108 = load i8, ptr %107, align 1, !tbaa !47
  %109 = zext i8 %108 to i32
  %110 = icmp eq i32 %109, 2
  br i1 %110, label %111, label %118

111:                                              ; preds = %104
  %112 = load ptr, ptr %8, align 8, !tbaa !3
  %113 = load i64, ptr %9, align 8, !tbaa !7
  %114 = load i64, ptr %20, align 8, !tbaa !7
  %115 = mul i64 %113, %114
  %116 = getelementptr inbounds nuw i8, ptr %112, i64 %115
  %117 = load ptr, ptr %116, align 8, !tbaa !39
  call void @free(ptr noundef %117) #7
  br label %118

118:                                              ; preds = %111, %104, %77
  %119 = load i64, ptr %20, align 8, !tbaa !7
  %120 = load i64, ptr %21, align 8, !tbaa !7
  %121 = icmp ne i64 %119, %120
  br i1 %121, label %122, label %181

122:                                              ; preds = %118
  %123 = load ptr, ptr %8, align 8, !tbaa !3
  %124 = load i64, ptr %9, align 8, !tbaa !7
  %125 = load i64, ptr %20, align 8, !tbaa !7
  %126 = mul i64 %124, %125
  %127 = getelementptr inbounds nuw i8, ptr %123, i64 %126
  %128 = load ptr, ptr %8, align 8, !tbaa !3
  %129 = load i64, ptr %9, align 8, !tbaa !7
  %130 = load i64, ptr %21, align 8, !tbaa !7
  %131 = mul i64 %129, %130
  %132 = getelementptr inbounds nuw i8, ptr %128, i64 %131
  %133 = load i64, ptr %9, align 8, !tbaa !7
  call void @llvm.memmove.p0.p0.i64(ptr align 1 %127, ptr align 1 %132, i64 %133, i1 false)
  %134 = load i32, ptr %13, align 4, !tbaa !45
  %135 = icmp eq i32 %134, 1
  br i1 %135, label %136, label %151

136:                                              ; preds = %122
  %137 = load ptr, ptr %8, align 8, !tbaa !3
  %138 = load i64, ptr %9, align 8, !tbaa !7
  %139 = load ptr, ptr %8, align 8, !tbaa !3
  %140 = load i64, ptr %9, align 8, !tbaa !7
  %141 = load i64, ptr %20, align 8, !tbaa !7
  %142 = mul i64 %140, %141
  %143 = getelementptr inbounds nuw i8, ptr %139, i64 %142
  %144 = load i64, ptr %12, align 8, !tbaa !7
  %145 = getelementptr inbounds nuw i8, ptr %143, i64 %144
  %146 = load ptr, ptr %145, align 8, !tbaa !39
  %147 = load i64, ptr %11, align 8, !tbaa !7
  %148 = load i64, ptr %12, align 8, !tbaa !7
  %149 = load i32, ptr %13, align 4, !tbaa !45
  %150 = call i64 @stbds_hm_find_slot(ptr noundef %137, i64 noundef %138, ptr noundef %146, i64 noundef %147, i64 noundef %148, i32 noundef %149)
  store i64 %150, ptr %17, align 8, !tbaa !7
  br label %165

151:                                              ; preds = %122
  %152 = load ptr, ptr %8, align 8, !tbaa !3
  %153 = load i64, ptr %9, align 8, !tbaa !7
  %154 = load ptr, ptr %8, align 8, !tbaa !3
  %155 = load i64, ptr %9, align 8, !tbaa !7
  %156 = load i64, ptr %20, align 8, !tbaa !7
  %157 = mul i64 %155, %156
  %158 = getelementptr inbounds nuw i8, ptr %154, i64 %157
  %159 = load i64, ptr %12, align 8, !tbaa !7
  %160 = getelementptr inbounds nuw i8, ptr %158, i64 %159
  %161 = load i64, ptr %11, align 8, !tbaa !7
  %162 = load i64, ptr %12, align 8, !tbaa !7
  %163 = load i32, ptr %13, align 4, !tbaa !45
  %164 = call i64 @stbds_hm_find_slot(ptr noundef %152, i64 noundef %153, ptr noundef %160, i64 noundef %161, i64 noundef %162, i32 noundef %163)
  store i64 %164, ptr %17, align 8, !tbaa !7
  br label %165

165:                                              ; preds = %151, %136
  %166 = load ptr, ptr %14, align 8, !tbaa !3
  %167 = getelementptr inbounds nuw %struct.stbds_hash_index, ptr %166, i32 0, i32 10
  %168 = load ptr, ptr %167, align 8, !tbaa !16
  %169 = load i64, ptr %17, align 8, !tbaa !7
  %170 = ashr i64 %169, 3
  %171 = getelementptr inbounds %struct.stbds_hash_bucket, ptr %168, i64 %170
  store ptr %171, ptr %18, align 8, !tbaa !3
  %172 = load i64, ptr %17, align 8, !tbaa !7
  %173 = and i64 %172, 7
  %174 = trunc i64 %173 to i32
  store i32 %174, ptr %19, align 4, !tbaa !45
  %175 = load i64, ptr %20, align 8, !tbaa !7
  %176 = load ptr, ptr %18, align 8, !tbaa !3
  %177 = getelementptr inbounds nuw %struct.stbds_hash_bucket, ptr %176, i32 0, i32 1
  %178 = load i32, ptr %19, align 4, !tbaa !45
  %179 = sext i32 %178 to i64
  %180 = getelementptr inbounds [8 x i64], ptr %177, i64 0, i64 %179
  store i64 %175, ptr %180, align 8, !tbaa !7
  br label %181

181:                                              ; preds = %165, %118
  %182 = load ptr, ptr %15, align 8, !tbaa !3
  %183 = getelementptr inbounds %struct.stbds_array_header, ptr %182, i64 -1
  %184 = getelementptr inbounds nuw %struct.stbds_array_header, ptr %183, i32 0, i32 0
  %185 = load i64, ptr %184, align 8, !tbaa !9
  %186 = sub i64 %185, 1
  store i64 %186, ptr %184, align 8, !tbaa !9
  %187 = load ptr, ptr %14, align 8, !tbaa !3
  %188 = getelementptr inbounds nuw %struct.stbds_hash_index, ptr %187, i32 0, i32 2
  %189 = load i64, ptr %188, align 8, !tbaa !24
  %190 = load ptr, ptr %14, align 8, !tbaa !3
  %191 = getelementptr inbounds nuw %struct.stbds_hash_index, ptr %190, i32 0, i32 4
  %192 = load i64, ptr %191, align 8, !tbaa !27
  %193 = icmp ult i64 %189, %192
  br i1 %193, label %194, label %210

194:                                              ; preds = %181
  %195 = load ptr, ptr %14, align 8, !tbaa !3
  %196 = getelementptr inbounds nuw %struct.stbds_hash_index, ptr %195, i32 0, i32 1
  %197 = load i64, ptr %196, align 8, !tbaa !21
  %198 = icmp ugt i64 %197, 8
  br i1 %198, label %199, label %210

199:                                              ; preds = %194
  %200 = load ptr, ptr %14, align 8, !tbaa !3
  %201 = getelementptr inbounds nuw %struct.stbds_hash_index, ptr %200, i32 0, i32 1
  %202 = load i64, ptr %201, align 8, !tbaa !21
  %203 = lshr i64 %202, 1
  %204 = load ptr, ptr %14, align 8, !tbaa !3
  %205 = call ptr @stbds_make_hash_index(i64 noundef %203, ptr noundef %204)
  %206 = load ptr, ptr %15, align 8, !tbaa !3
  %207 = getelementptr inbounds %struct.stbds_array_header, ptr %206, i64 -1
  %208 = getelementptr inbounds nuw %struct.stbds_array_header, ptr %207, i32 0, i32 2
  store ptr %205, ptr %208, align 8, !tbaa !12
  %209 = load ptr, ptr %14, align 8, !tbaa !3
  call void @free(ptr noundef %209) #7
  br label %229

210:                                              ; preds = %194, %181
  %211 = load ptr, ptr %14, align 8, !tbaa !3
  %212 = getelementptr inbounds nuw %struct.stbds_hash_index, ptr %211, i32 0, i32 5
  %213 = load i64, ptr %212, align 8, !tbaa !23
  %214 = load ptr, ptr %14, align 8, !tbaa !3
  %215 = getelementptr inbounds nuw %struct.stbds_hash_index, ptr %214, i32 0, i32 6
  %216 = load i64, ptr %215, align 8, !tbaa !26
  %217 = icmp ugt i64 %213, %216
  br i1 %217, label %218, label %228

218:                                              ; preds = %210
  %219 = load ptr, ptr %14, align 8, !tbaa !3
  %220 = getelementptr inbounds nuw %struct.stbds_hash_index, ptr %219, i32 0, i32 1
  %221 = load i64, ptr %220, align 8, !tbaa !21
  %222 = load ptr, ptr %14, align 8, !tbaa !3
  %223 = call ptr @stbds_make_hash_index(i64 noundef %221, ptr noundef %222)
  %224 = load ptr, ptr %15, align 8, !tbaa !3
  %225 = getelementptr inbounds %struct.stbds_array_header, ptr %224, i64 -1
  %226 = getelementptr inbounds nuw %struct.stbds_array_header, ptr %225, i32 0, i32 2
  store ptr %223, ptr %226, align 8, !tbaa !12
  %227 = load ptr, ptr %14, align 8, !tbaa !3
  call void @free(ptr noundef %227) #7
  br label %228

228:                                              ; preds = %218, %210
  br label %229

229:                                              ; preds = %228, %199
  %230 = load ptr, ptr %8, align 8, !tbaa !3
  store ptr %230, ptr %7, align 8
  store i32 1, ptr %16, align 4
  call void @llvm.lifetime.end.p0(i64 8, ptr %21) #7
  call void @llvm.lifetime.end.p0(i64 8, ptr %20) #7
  call void @llvm.lifetime.end.p0(i64 4, ptr %19) #7
  call void @llvm.lifetime.end.p0(i64 8, ptr %18) #7
  br label %231

231:                                              ; preds = %229, %51
  call void @llvm.lifetime.end.p0(i64 8, ptr %17) #7
  br label %232

232:                                              ; preds = %231, %39
  call void @llvm.lifetime.end.p0(i64 8, ptr %15) #7
  call void @llvm.lifetime.end.p0(i64 8, ptr %14) #7
  br label %233

233:                                              ; preds = %232, %24
  %234 = load ptr, ptr %7, align 8
  ret ptr %234
}