; Function Attrs: nounwind uwtable
define noundef ptr @stbds_hmdel_key(ptr noundef returned captures(address_is_null, ret: address, provenance) %0, i64 noundef %1, ptr noundef readonly captures(none) %2, i64 noundef %3, i64 noundef %4, i32 noundef %5) local_unnamed_addr #13 {
  %7 = icmp eq ptr %0, null
  br i1 %7, label %88, label %8

8:                                                ; preds = %6
  %9 = sub i64 0, %1
  %10 = getelementptr inbounds i8, ptr %0, i64 %9
  %11 = getelementptr inbounds i8, ptr %10, i64 -32
  %12 = getelementptr inbounds i8, ptr %10, i64 -16
  %13 = load ptr, ptr %12, align 8, !tbaa !37
  %14 = getelementptr inbounds i8, ptr %10, i64 -8
  store i64 0, ptr %14, align 8, !tbaa !46
  %15 = icmp eq ptr %13, null
  br i1 %15, label %88, label %16

16:                                               ; preds = %8
  %17 = tail call i64 @stbds_hm_find_slot(ptr noundef nonnull %0, i64 noundef %1, ptr noundef %2, i64 noundef %3, i64 noundef %4, i32 noundef %5)
  %18 = icmp slt i64 %17, 0
  br i1 %18, label %88, label %19

19:                                               ; preds = %16
  %20 = getelementptr inbounds nuw i8, ptr %13, i64 96
  %21 = load ptr, ptr %20, align 8, !tbaa !13
  %22 = lshr i64 %17, 3
  %23 = getelementptr inbounds nuw %struct.stbds_hash_bucket, ptr %21, i64 %22
  %24 = and i64 %17, 7
  %25 = getelementptr inbounds nuw i8, ptr %23, i64 64
  %26 = getelementptr inbounds nuw [8 x i64], ptr %25, i64 0, i64 %24
  %27 = load i64, ptr %26, align 8, !tbaa !10
  %28 = load i64, ptr %11, align 8, !tbaa !3
  %29 = add nsw i64 %28, -2
  %30 = getelementptr inbounds nuw i8, ptr %13, i64 16
  %31 = load i64, ptr %30, align 8, !tbaa !21
  %32 = add i64 %31, -1
  store i64 %32, ptr %30, align 8, !tbaa !21
  %33 = getelementptr inbounds nuw i8, ptr %13, i64 40
  %34 = load i64, ptr %33, align 8, !tbaa !20
  %35 = add i64 %34, 1
  store i64 %35, ptr %33, align 8, !tbaa !20
  store i64 1, ptr %14, align 8, !tbaa !46
  %36 = getelementptr inbounds nuw [8 x i64], ptr %23, i64 0, i64 %24
  store i64 1, ptr %36, align 8, !tbaa !10
  store i64 -2, ptr %26, align 8, !tbaa !10
  %37 = icmp eq i32 %5, 1
  br i1 %37, label %38, label %.thread

38:                                               ; preds = %19
  %39 = getelementptr inbounds nuw i8, ptr %13, i64 89
  %40 = load i8, ptr %39, align 1, !tbaa !38
  %41 = icmp eq i8 %40, 2
  br i1 %41, label %42, label %46

42:                                               ; preds = %38
  %43 = mul i64 %27, %1
  %44 = getelementptr inbounds nuw i8, ptr %0, i64 %43
  %45 = load ptr, ptr %44, align 8, !tbaa !36
  tail call void @free(ptr noundef %45) #21
  br label %46

46:                                               ; preds = %42, %38
  %.not = icmp eq i64 %27, %29
  br i1 %.not, label %66, label %53

.thread:                                          ; preds = %19
  %.not91 = icmp eq i64 %27, %29
  br i1 %.not91, label %66, label %.thread92

.thread92:                                        ; preds = %.thread
  %47 = mul i64 %27, %1
  %48 = getelementptr inbounds nuw i8, ptr %0, i64 %47
  %49 = mul i64 %29, %1
  %50 = getelementptr inbounds nuw i8, ptr %0, i64 %49
  tail call void @llvm.memmove.p0.p0.i64(ptr nonnull align 1 %48, ptr nonnull align 1 %50, i64 %1, i1 false)
  %51 = getelementptr inbounds nuw i8, ptr %48, i64 %4
  %52 = tail call i64 @stbds_hm_find_slot(ptr noundef nonnull %0, i64 noundef %1, ptr noundef nonnull %51, i64 noundef %3, i64 noundef %4, i32 noundef %5)
  br label %61

53:                                               ; preds = %46
  %54 = mul i64 %27, %1
  %55 = getelementptr inbounds nuw i8, ptr %0, i64 %54
  %56 = mul i64 %29, %1
  %57 = getelementptr inbounds nuw i8, ptr %0, i64 %56
  tail call void @llvm.memmove.p0.p0.i64(ptr nonnull align 1 %55, ptr nonnull align 1 %57, i64 %1, i1 false)
  %58 = getelementptr inbounds nuw i8, ptr %55, i64 %4
  %59 = load ptr, ptr %58, align 8, !tbaa !36
  %60 = tail call i64 @stbds_hm_find_slot(ptr noundef nonnull %0, i64 noundef %1, ptr noundef %59, i64 noundef %3, i64 noundef %4, i32 noundef 1)
  br label %61

61:                                               ; preds = %.thread92, %53
  %.083 = phi i64 [ %60, %53 ], [ %52, %.thread92 ]
  %62 = load ptr, ptr %20, align 8, !tbaa !13
  %63 = ashr i64 %.083, 3
  %64 = and i64 %.083, 7
  %65 = getelementptr inbounds %struct.stbds_hash_bucket, ptr %62, i64 %63, i32 1, i64 %64
  store i64 %27, ptr %65, align 8, !tbaa !10
  br label %66

66:                                               ; preds = %.thread, %61, %46
  %67 = load i64, ptr %11, align 8, !tbaa !3
  %68 = add i64 %67, -1
  store i64 %68, ptr %11, align 8, !tbaa !3
  %69 = load i64, ptr %30, align 8, !tbaa !21
  %70 = getelementptr inbounds nuw i8, ptr %13, i64 32
  %71 = load i64, ptr %70, align 8, !tbaa !24
  %72 = icmp ult i64 %69, %71
  br i1 %72, label %73, label %79

73:                                               ; preds = %66
  %74 = getelementptr inbounds nuw i8, ptr %13, i64 8
  %75 = load i64, ptr %74, align 8, !tbaa !18
  %76 = icmp ugt i64 %75, 8
  br i1 %76, label %77, label %79

77:                                               ; preds = %73
  %78 = lshr i64 %75, 1
  br label %.sink.split

79:                                               ; preds = %73, %66
  %80 = load i64, ptr %33, align 8, !tbaa !20
  %81 = getelementptr inbounds nuw i8, ptr %13, i64 48
  %82 = load i64, ptr %81, align 8, !tbaa !23
  %83 = icmp ugt i64 %80, %82
  br i1 %83, label %84, label %88

84:                                               ; preds = %79
  %85 = getelementptr inbounds nuw i8, ptr %13, i64 8
  %86 = load i64, ptr %85, align 8, !tbaa !18
  br label %.sink.split

.sink.split:                                      ; preds = %84, %77
  %.sink93 = phi i64 [ %78, %77 ], [ %86, %84 ]
  %87 = tail call ptr @stbds_make_hash_index(i64 noundef %.sink93, ptr noundef nonnull %13)
  store ptr %87, ptr %12, align 8, !tbaa !37
  tail call void @free(ptr noundef nonnull %13) #21
  br label %88

88:                                               ; preds = %.sink.split, %8, %79, %16, %6
  ret ptr %0
}